target datalayout = "e-m:e-p270:32:32-p271:32:32-p272:64:64-i64:64-i128:128-f80:128-n8:16:32:64-S128"
target triple = "x86_64-pc-linux-gnu"

%struct.internal_hooks = type { ptr, ptr, ptr }
%struct.printbuffer = type { ptr, i64, i64, i64, i32, i32, %struct.internal_hooks }

@global_hooks = internal global %struct.internal_hooks { ptr @malloc, ptr @free, ptr @realloc }, align 8

; Function Attrs: nounwind sspstrong uwtable
define ptr @cJSON_PrintBuffered(ptr noundef %0, i32 noundef %1, i32 noundef %2) #0 {
  %4 = alloca ptr, align 8
  %5 = alloca ptr, align 8
  %6 = alloca i32, align 4
  %7 = alloca i32, align 4
  %8 = alloca %struct.printbuffer, align 8
  %9 = alloca i32, align 4
  store ptr %0, ptr %5, align 8, !tbaa !11
  store i32 %1, ptr %6, align 4, !tbaa !40
  store i32 %2, ptr %7, align 4, !tbaa !40
  call void @llvm.lifetime.start.p0(i64 64, ptr %8) #10
  call void @llvm.memset.p0.i64(ptr align 8 %8, i8 0, i64 64, i1 false)
  %10 = load i32, ptr %6, align 4, !tbaa !40
  %11 = icmp slt i32 %10, 0
  br i1 %11, label %12, label %13

12:                                               ; preds = %3
  store ptr null, ptr %4, align 8
  store i32 1, ptr %9, align 4
  br label %43

13:                                               ; preds = %3
  %14 = load ptr, ptr @global_hooks, align 8, !tbaa !21
  %15 = load i32, ptr %6, align 4, !tbaa !40
  %16 = sext i32 %15 to i64
  %17 = call ptr %14(i64 noundef %16)
  %18 = getelementptr inbounds nuw %struct.printbuffer, ptr %8, i32 0, i32 0
  store ptr %17, ptr %18, align 8, !tbaa !48
  %19 = getelementptr inbounds nuw %struct.printbuffer, ptr %8, i32 0, i32 0
  %20 = load ptr, ptr %19, align 8, !tbaa !48
  %21 = icmp ne ptr %20, null
  br i1 %21, label %23, label %22

22:                                               ; preds = %13
  store ptr null, ptr %4, align 8
  store i32 1, ptr %9, align 4
  br label %43

23:                                               ; preds = %13
  %24 = load i32, ptr %6, align 4, !tbaa !40
  %25 = sext i32 %24 to i64
  %26 = getelementptr inbounds nuw %struct.printbuffer, ptr %8, i32 0, i32 1
  store i64 %25, ptr %26, align 8, !tbaa !50
  %27 = getelementptr inbounds nuw %struct.printbuffer, ptr %8, i32 0, i32 2
  store i64 0, ptr %27, align 8, !tbaa !52
  %28 = getelementptr inbounds nuw %struct.printbuffer, ptr %8, i32 0, i32 4
  store i32 0, ptr %28, align 8, !tbaa !53
  %29 = load i32, ptr %7, align 4, !tbaa !40
  %30 = getelementptr inbounds nuw %struct.printbuffer, ptr %8, i32 0, i32 5
  store i32 %29, ptr %30, align 4, !tbaa !51
  %31 = getelementptr inbounds nuw %struct.printbuffer, ptr %8, i32 0, i32 6
  call void @llvm.memcpy.p0.p0.i64(ptr align 8 %31, ptr align 8 @global_hooks, i64 24, i1 false), !tbaa.struct !45
  %32 = load ptr, ptr %5, align 8, !tbaa !11
  %33 = call i32 @print_value(ptr noundef %32, ptr noundef %8)
  %34 = icmp ne i32 %33, 0
  br i1 %34, label %40, label %35

35:                                               ; preds = %23
  %36 = load ptr, ptr getelementptr inbounds nuw (%struct.internal_hooks, ptr @global_hooks, i32 0, i32 1), align 8, !tbaa !23
  %37 = getelementptr inbounds nuw %struct.printbuffer, ptr %8, i32 0, i32 0
  %38 = load ptr, ptr %37, align 8, !tbaa !48
  call void %36(ptr noundef %38)
  %39 = getelementptr inbounds nuw %struct.printbuffer, ptr %8, i32 0, i32 0
  store ptr null, ptr %39, align 8, !tbaa !48
  store ptr null, ptr %4, align 8
  store i32 1, ptr %9, align 4
  br label %43

40:                                               ; preds = %23
  %41 = getelementptr inbounds nuw %struct.printbuffer, ptr %8, i32 0, i32 0
  %42 = load ptr, ptr %41, align 8, !tbaa !48
  store ptr %42, ptr %4, align 8
  store i32 1, ptr %9, align 4
  br label %43

43:                                               ; preds = %40, %35, %22, %12
  call void @llvm.lifetime.end.p0(i64 64, ptr %8) #10
  %44 = load ptr, ptr %4, align 8
  ret ptr %44
}