; Function Attrs: nounwind sspstrong uwtable
define ptr @cJSON_PrintBuffered(ptr noundef %0, i32 noundef %1, i32 noundef %2) local_unnamed_addr #8 {
  %4 = alloca %struct.printbuffer, align 8
  call void @llvm.lifetime.start.p0(i64 64, ptr nonnull %4) #31
  %5 = getelementptr inbounds nuw i8, ptr %4, i64 24
  store i64 0, ptr %5, align 8
  %6 = icmp slt i32 %1, 0
  br i1 %6, label %23, label %7

7:                                                ; preds = %3
  %8 = load ptr, ptr @global_hooks, align 8, !tbaa !18
  %9 = zext nneg i32 %1 to i64
  %10 = tail call ptr %8(i64 noundef %9) #31
  store ptr %10, ptr %4, align 8, !tbaa !41
  %.not = icmp eq ptr %10, null
  br i1 %.not, label %23, label %11

11:                                               ; preds = %7
  %12 = getelementptr inbounds nuw i8, ptr %4, i64 8
  store i64 %9, ptr %12, align 8, !tbaa !43
  %13 = getelementptr inbounds nuw i8, ptr %4, i64 16
  store i64 0, ptr %13, align 8, !tbaa !45
  %14 = getelementptr inbounds nuw i8, ptr %4, i64 32
  store i32 0, ptr %14, align 8, !tbaa !47
  %15 = getelementptr inbounds nuw i8, ptr %4, i64 36
  store i32 %2, ptr %15, align 4, !tbaa !44
  %16 = getelementptr inbounds nuw i8, ptr %4, i64 40
  call void @llvm.memcpy.p0.p0.i64(ptr noundef nonnull align 8 dereferenceable(24) %16, ptr noundef nonnull align 8 dereferenceable(24) @global_hooks, i64 24, i1 false), !tbaa.struct !31
  %17 = call fastcc i32 @print_value(ptr noundef %0, ptr noundef %4)
  %.not6 = icmp eq i32 %17, 0
  br i1 %.not6, label %18, label %21

18:                                               ; preds = %11
  %19 = load ptr, ptr getelementptr inbounds nuw (i8, ptr @global_hooks, i64 8), align 8, !tbaa !22
  %20 = load ptr, ptr %4, align 8, !tbaa !41
  call void %19(ptr noundef %20) #31
  br label %23

21:                                               ; preds = %11
  %22 = load ptr, ptr %4, align 8, !tbaa !41
  br label %23

23:                                               ; preds = %7, %3, %21, %18
  %.0 = phi ptr [ %22, %21 ], [ null, %18 ], [ null, %3 ], [ null, %7 ]
  call void @llvm.lifetime.end.p0(i64 64, ptr nonnull %4) #31
  ret ptr %.0
}